target datalayout = "e-m:e-p270:32:32-p271:32:32-p272:64:64-i64:64-i128:128-f80:128-n8:16:32:64-S128"
target triple = "x86_64-pc-linux-gnu"

%struct.slurm_conf_t = type { i64, ptr, i16, ptr, ptr, ptr, ptr, ptr, i16, ptr, ptr, ptr, ptr, ptr, ptr, ptr, i16, ptr, ptr, ptr, ptr, i16, ptr, ptr, ptr, i64, ptr, ptr, ptr, ptr, i16, ptr, ptr, i16, i32, ptr, i32, ptr, i32, i32, ptr, ptr, i64, i64, ptr, i16, i16, ptr, i32, i32, ptr, i32, ptr, i32, i16, i16, i16, ptr, i16, i16, ptr, ptr, i32, i16, i16, ptr, i32, i16, ptr, ptr, ptr, ptr, i16, ptr, ptr, ptr, ptr, i32, ptr, ptr, ptr, ptr, i16, i16, ptr, i32, i32, i32, i16, i16, ptr, ptr, i16, ptr, ptr, i32, i32, i32, i32, i32, i64, i32, i32, i16, ptr, ptr, i32, ptr, ptr, ptr, i16, i32, ptr, ptr, i16, ptr, ptr, i32, i16, ptr, ptr, ptr, ptr, i32, i32, i16, i16, i32, ptr, i16, ptr, i32, i32, i32, i32, i32, i32, ptr, i16, ptr, ptr, i32, i16, ptr, i32, i16, i16, ptr, ptr, ptr, i16, ptr, ptr, ptr, ptr, i16, i16, ptr, i16, ptr, i16, ptr, i16, ptr, i16, ptr, ptr, ptr, ptr, i16, ptr, ptr, ptr, i32, ptr, i32, ptr, ptr, i16, ptr, ptr, i32, i16, ptr, ptr, i16, i16, ptr, i16, ptr, ptr, ptr, i32, ptr, i16, i16, ptr, ptr, ptr, ptr, ptr, ptr, ptr, ptr, i16, i32, i16, ptr, ptr, ptr, ptr, i32, ptr, ptr, ptr, i16, ptr, ptr, ptr, i16, ptr, i16, ptr, i16, i16, ptr }
%struct.gs_part = type { ptr, i16, i32, ptr, i32, i32, ptr, i32, i32, ptr, ptr, i16, ptr }
%struct.gs_job = type { i32, ptr, i16, i16 }

@slurm_conf = external global %struct.slurm_conf_t, align 8
@.str.42 = private unnamed_addr constant [40 x i8] c"gang:  part %s has %u jobs, %u shadows:\00", align 1
@.str.43 = private unnamed_addr constant [38 x i8] c"gang:   shadow %pJ row_s %s, sig_s %s\00", align 1
@.str.44 = private unnamed_addr constant [31 x i8] c"gang:   %pJ row_s %s, sig_s %s\00", align 1
@.str.45 = private unnamed_addr constant [43 x i8] c"gang:  active resmap has %d of %d bits set\00", align 1
@.str.46 = private unnamed_addr constant [11 x i8] c"GS_SUSPEND\00", align 1
@.str.47 = private unnamed_addr constant [10 x i8] c"GS_RESUME\00", align 1
@.str.48 = private unnamed_addr constant [11 x i8] c"GS_NO_PART\00", align 1
@.str.49 = private unnamed_addr constant [11 x i8] c"GS_SUCCESS\00", align 1
@.str.50 = private unnamed_addr constant [10 x i8] c"GS_ACTIVE\00", align 1
@.str.51 = private unnamed_addr constant [13 x i8] c"GS_NO_ACTIVE\00", align 1
@.str.52 = private unnamed_addr constant [10 x i8] c"GS_FILLER\00", align 1
@.str.53 = private unnamed_addr constant [8 x i8] c"unknown\00", align 1

; Function Attrs: nounwind uwtable
define internal ptr @_print_flag(i32 noundef %0) #0 {
  %2 = alloca ptr, align 8
  %3 = alloca i32, align 4
  store i32 %0, ptr %3, align 4
  %4 = load i32, ptr %3, align 4
  switch i32 %4, label %12 [
    i32 0, label %5
    i32 1, label %6
    i32 2, label %7
    i32 3, label %8
    i32 4, label %9
    i32 5, label %10
    i32 6, label %11
  ]

5:                                                ; preds = %1
  store ptr @.str.46, ptr %2, align 8
  br label %13

6:                                                ; preds = %1
  store ptr @.str.47, ptr %2, align 8
  br label %13

7:                                                ; preds = %1
  store ptr @.str.48, ptr %2, align 8
  br label %13

8:                                                ; preds = %1
  store ptr @.str.49, ptr %2, align 8
  br label %13

9:                                                ; preds = %1
  store ptr @.str.50, ptr %2, align 8
  br label %13

10:                                               ; preds = %1
  store ptr @.str.51, ptr %2, align 8
  br label %13

11:                                               ; preds = %1
  store ptr @.str.52, ptr %2, align 8
  br label %13

12:                                               ; preds = %1
  store ptr @.str.53, ptr %2, align 8
  br label %13

13:                                               ; preds = %12, %11, %10, %9, %8, %7, %6, %5
  %14 = load ptr, ptr %2, align 8
  ret ptr %14
}

; Function Attrs: nounwind uwtable
define internal void @_print_jobs(ptr noundef %0) #0 {
  %2 = alloca ptr, align 8
  %3 = alloca i32, align 4
  %4 = alloca i32, align 4
  store ptr %0, ptr %2, align 8
  call void @llvm.lifetime.start.p0(i64 4, ptr %3) #8
  %5 = load i64, ptr getelementptr inbounds nuw (%struct.slurm_conf_t, ptr @slurm_conf, i32 0, i32 42), align 8
  %6 = and i64 %5, 8192
  %7 = icmp ne i64 %6, 0
  br i1 %7, label %8, label %159

8:                                                ; preds = %1
  br label %9

9:                                                ; preds = %8
  br label %10

10:                                               ; preds = %9
  %11 = call i32 @get_log_level()
  %12 = icmp sge i32 %11, 3
  br i1 %12, label %13, label %23

13:                                               ; preds = %10
  %14 = load ptr, ptr %2, align 8
  %15 = getelementptr inbounds nuw %struct.gs_part, ptr %14, i32 0, i32 0
  %16 = load ptr, ptr %15, align 8
  %17 = load ptr, ptr %2, align 8
  %18 = getelementptr inbounds nuw %struct.gs_part, ptr %17, i32 0, i32 2
  %19 = load i32, ptr %18, align 4
  %20 = load ptr, ptr %2, align 8
  %21 = getelementptr inbounds nuw %struct.gs_part, ptr %20, i32 0, i32 5
  %22 = load i32, ptr %21, align 4
  call void (i32, ptr, ...) @log_var(i32 noundef 3, ptr noundef @.str.42, ptr noundef %16, i32 noundef %19, i32 noundef %22)
  br label %23

23:                                               ; preds = %13, %10
  br label %24

24:                                               ; preds = %23
  br label %25

25:                                               ; preds = %24
  br label %26

26:                                               ; preds = %25
  br label %27

27:                                               ; preds = %26
  store i32 0, ptr %3, align 4
  br label %28

28:                                               ; preds = %76, %27
  %29 = load i32, ptr %3, align 4
  %30 = load ptr, ptr %2, align 8
  %31 = getelementptr inbounds nuw %struct.gs_part, ptr %30, i32 0, i32 5
  %32 = load i32, ptr %31, align 4
  %33 = icmp ult i32 %29, %32
  br i1 %33, label %34, label %79

34:                                               ; preds = %28
  br label %35

35:                                               ; preds = %34
  br label %36

36:                                               ; preds = %35
  %37 = call i32 @get_log_level()
  %38 = icmp sge i32 %37, 3
  br i1 %38, label %39, label %71

39:                                               ; preds = %36
  %40 = load ptr, ptr %2, align 8
  %41 = getelementptr inbounds nuw %struct.gs_part, ptr %40, i32 0, i32 6
  %42 = load ptr, ptr %41, align 8
  %43 = load i32, ptr %3, align 4
  %44 = sext i32 %43 to i64
  %45 = getelementptr inbounds ptr, ptr %42, i64 %44
  %46 = load ptr, ptr %45, align 8
  %47 = getelementptr inbounds nuw %struct.gs_job, ptr %46, i32 0, i32 1
  %48 = load ptr, ptr %47, align 8
  %49 = load ptr, ptr %2, align 8
  %50 = getelementptr inbounds nuw %struct.gs_part, ptr %49, i32 0, i32 6
  %51 = load ptr, ptr %50, align 8
  %52 = load i32, ptr %3, align 4
  %53 = sext i32 %52 to i64
  %54 = getelementptr inbounds ptr, ptr %51, i64 %53
  %55 = load ptr, ptr %54, align 8
  %56 = getelementptr inbounds nuw %struct.gs_job, ptr %55, i32 0, i32 3
  %57 = load i16, ptr %56, align 2
  %58 = zext i16 %57 to i32
  %59 = call ptr @_print_flag(i32 noundef %58)
  %60 = load ptr, ptr %2, align 8
  %61 = getelementptr inbounds nuw %struct.gs_part, ptr %60, i32 0, i32 6
  %62 = load ptr, ptr %61, align 8
  %63 = load i32, ptr %3, align 4
  %64 = sext i32 %63 to i64
  %65 = getelementptr inbounds ptr, ptr %62, i64 %64
  %66 = load ptr, ptr %65, align 8
  %67 = getelementptr inbounds nuw %struct.gs_job, ptr %66, i32 0, i32 2
  %68 = load i16, ptr %67, align 8
  %69 = zext i16 %68 to i32
  %70 = call ptr @_print_flag(i32 noundef %69)
  call void (i32, ptr, ...) @log_var(i32 noundef 3, ptr noundef @.str.43, ptr noundef %48, ptr noundef %59, ptr noundef %70)
  br label %71

71:                                               ; preds = %39, %36
  br label %72

72:                                               ; preds = %71
  br label %73

73:                                               ; preds = %72
  br label %74

74:                                               ; preds = %73
  br label %75

75:                                               ; preds = %74
  br label %76

76:                                               ; preds = %75
  %77 = load i32, ptr %3, align 4
  %78 = add nsw i32 %77, 1
  store i32 %78, ptr %3, align 4
  br label %28, !llvm.loop !32

79:                                               ; preds = %28
  store i32 0, ptr %3, align 4
  br label %80

80:                                               ; preds = %128, %79
  %81 = load i32, ptr %3, align 4
  %82 = load ptr, ptr %2, align 8
  %83 = getelementptr inbounds nuw %struct.gs_part, ptr %82, i32 0, i32 2
  %84 = load i32, ptr %83, align 4
  %85 = icmp ult i32 %81, %84
  br i1 %85, label %86, label %131

86:                                               ; preds = %80
  br label %87

87:                                               ; preds = %86
  br label %88

88:                                               ; preds = %87
  %89 = call i32 @get_log_level()
  %90 = icmp sge i32 %89, 3
  br i1 %90, label %91, label %123

91:                                               ; preds = %88
  %92 = load ptr, ptr %2, align 8
  %93 = getelementptr inbounds nuw %struct.gs_part, ptr %92, i32 0, i32 3
  %94 = load ptr, ptr %93, align 8
  %95 = load i32, ptr %3, align 4
  %96 = sext i32 %95 to i64
  %97 = getelementptr inbounds ptr, ptr %94, i64 %96
  %98 = load ptr, ptr %97, align 8
  %99 = getelementptr inbounds nuw %struct.gs_job, ptr %98, i32 0, i32 1
  %100 = load ptr, ptr %99, align 8
  %101 = load ptr, ptr %2, align 8
  %102 = getelementptr inbounds nuw %struct.gs_part, ptr %101, i32 0, i32 3
  %103 = load ptr, ptr %102, align 8
  %104 = load i32, ptr %3, align 4
  %105 = sext i32 %104 to i64
  %106 = getelementptr inbounds ptr, ptr %103, i64 %105
  %107 = load ptr, ptr %106, align 8
  %108 = getelementptr inbounds nuw %struct.gs_job, ptr %107, i32 0, i32 3
  %109 = load i16, ptr %108, align 2
  %110 = zext i16 %109 to i32
  %111 = call ptr @_print_flag(i32 noundef %110)
  %112 = load ptr, ptr %2, align 8
  %113 = getelementptr inbounds nuw %struct.gs_part, ptr %112, i32 0, i32 3
  %114 = load ptr, ptr %113, align 8
  %115 = load i32, ptr %3, align 4
  %116 = sext i32 %115 to i64
  %117 = getelementptr inbounds ptr, ptr %114, i64 %116
  %118 = load ptr, ptr %117, align 8
  %119 = getelementptr inbounds nuw %struct.gs_job, ptr %118, i32 0, i32 2
  %120 = load i16, ptr %119, align 8
  %121 = zext i16 %120 to i32
  %122 = call ptr @_print_flag(i32 noundef %121)
  call void (i32, ptr, ...) @log_var(i32 noundef 3, ptr noundef @.str.44, ptr noundef %100, ptr noundef %111, ptr noundef %122)
  br label %123

123:                                              ; preds = %91, %88
  br label %124

124:                                              ; preds = %123
  br label %125

125:                                              ; preds = %124
  br label %126

126:                                              ; preds = %125
  br label %127

127:                                              ; preds = %126
  br label %128

128:                                              ; preds = %127
  %129 = load i32, ptr %3, align 4
  %130 = add nsw i32 %129, 1
  store i32 %130, ptr %3, align 4
  br label %80, !llvm.loop !33

131:                                              ; preds = %80
  %132 = load ptr, ptr %2, align 8
  %133 = getelementptr inbounds nuw %struct.gs_part, ptr %132, i32 0, i32 9
  %134 = load ptr, ptr %133, align 8
  %135 = icmp ne ptr %134, null
  br i1 %135, label %136, label %158

136:                                              ; preds = %131
  call void @llvm.lifetime.start.p0(i64 4, ptr %4) #8
  %137 = load ptr, ptr %2, align 8
  %138 = getelementptr inbounds nuw %struct.gs_part, ptr %137, i32 0, i32 9
  %139 = load ptr, ptr %138, align 8
  %140 = call i64 @bit_size(ptr noundef %139)
  %141 = trunc i64 %140 to i32
  store i32 %141, ptr %4, align 4
  %142 = load ptr, ptr %2, align 8
  %143 = getelementptr inbounds nuw %struct.gs_part, ptr %142, i32 0, i32 9
  %144 = load ptr, ptr %143, align 8
  %145 = call i32 @bit_set_count(ptr noundef %144)
  store i32 %145, ptr %3, align 4
  br label %146

146:                                              ; preds = %136
  br label %147

147:                                              ; preds = %146
  %148 = call i32 @get_log_level()
  %149 = icmp sge i32 %148, 3
  br i1 %149, label %150, label %153

150:                                              ; preds = %147
  %151 = load i32, ptr %3, align 4
  %152 = load i32, ptr %4, align 4
  call void (i32, ptr, ...) @log_var(i32 noundef 3, ptr noundef @.str.45, i32 noundef %151, i32 noundef %152)
  br label %153

153:                                              ; preds = %150, %147
  br label %154

154:                                              ; preds = %153
  br label %155

155:                                              ; preds = %154
  br label %156

156:                                              ; preds = %155
  br label %157

157:                                              ; preds = %156
  call void @llvm.lifetime.end.p0(i64 4, ptr %4) #8
  br label %158

158:                                              ; preds = %157, %131
  br label %159

159:                                              ; preds = %158, %1
  call void @llvm.lifetime.end.p0(i64 4, ptr %3) #8
  ret void
}