; Function Attrs: nounwind uwtable
define internal fastcc void @_print_jobs(ptr noundef nonnull readonly captures(none) %0) unnamed_addr #0 {
  %2 = load i64, ptr getelementptr inbounds nuw (i8, ptr @slurm_conf, i64 320), align 8
  %3 = and i64 %2, 8192
  %.not = icmp eq i64 %3, 0
  br i1 %.not, label %72, label %4

4:                                                ; preds = %1
  %5 = tail call i32 @get_log_level() #8
  %6 = icmp sgt i32 %5, 2
  br i1 %6, label %7, label %13

7:                                                ; preds = %4
  %8 = load ptr, ptr %0, align 8
  %9 = getelementptr inbounds nuw i8, ptr %0, i64 12
  %10 = load i32, ptr %9, align 4
  %11 = getelementptr inbounds nuw i8, ptr %0, i64 28
  %12 = load i32, ptr %11, align 4
  tail call void (i32, ptr, ...) @log_var(i32 noundef 3, ptr noundef nonnull @.str.42, ptr noundef %8, i32 noundef %10, i32 noundef %12) #8
  br label %13

13:                                               ; preds = %7, %4
  %14 = getelementptr inbounds nuw i8, ptr %0, i64 28
  %15 = load i32, ptr %14, align 4
  %.not36 = icmp eq i32 %15, 0
  br i1 %.not36, label %.preheader, label %.lr.ph

.lr.ph:                                           ; preds = %13
  %16 = getelementptr inbounds nuw i8, ptr %0, i64 32
  br label %20

.preheader:                                       ; preds = %37, %13
  %17 = getelementptr inbounds nuw i8, ptr %0, i64 12
  %18 = load i32, ptr %17, align 4
  %.not37 = icmp eq i32 %18, 0
  br i1 %.not37, label %._crit_edge, label %.lr.ph35

.lr.ph35:                                         ; preds = %.preheader
  %19 = getelementptr inbounds nuw i8, ptr %0, i64 16
  br label %41

20:                                               ; preds = %.lr.ph, %37
  %indvars.iv = phi i64 [ 0, %.lr.ph ], [ %indvars.iv.next, %37 ]
  %21 = tail call i32 @get_log_level() #8
  %22 = icmp sgt i32 %21, 2
  br i1 %22, label %23, label %37

23:                                               ; preds = %20
  %24 = load ptr, ptr %16, align 8
  %25 = getelementptr inbounds nuw ptr, ptr %24, i64 %indvars.iv
  %26 = load ptr, ptr %25, align 8
  %27 = getelementptr inbounds nuw i8, ptr %26, i64 8
  %28 = load ptr, ptr %27, align 8
  %29 = getelementptr inbounds nuw i8, ptr %26, i64 18
  %30 = load i16, ptr %29, align 2
  %31 = icmp ult i16 %30, 7
  br i1 %31, label %switch.lookup, label %_print_flag.exit

switch.lookup:                                    ; preds = %23
  %32 = zext nneg i16 %30 to i64
  %switch.gep = getelementptr inbounds nuw [7 x ptr], ptr @switch.table._print_jobs.4, i64 0, i64 %32
  %switch.load = load ptr, ptr %switch.gep, align 8
  br label %_print_flag.exit

_print_flag.exit:                                 ; preds = %23, %switch.lookup
  %.0.i = phi ptr [ %switch.load, %switch.lookup ], [ @.str.53, %23 ]
  %33 = getelementptr inbounds nuw i8, ptr %26, i64 16
  %34 = load i16, ptr %33, align 8
  %35 = icmp ult i16 %34, 7
  br i1 %35, label %switch.lookup42, label %_print_flag.exit28

switch.lookup42:                                  ; preds = %_print_flag.exit
  %36 = zext nneg i16 %34 to i64
  %switch.gep43 = getelementptr inbounds nuw [7 x ptr], ptr @switch.table._print_jobs.4, i64 0, i64 %36
  %switch.load44 = load ptr, ptr %switch.gep43, align 8
  br label %_print_flag.exit28

_print_flag.exit28:                               ; preds = %_print_flag.exit, %switch.lookup42
  %.0.i27 = phi ptr [ %switch.load44, %switch.lookup42 ], [ @.str.53, %_print_flag.exit ]
  tail call void (i32, ptr, ...) @log_var(i32 noundef 3, ptr noundef nonnull @.str.43, ptr noundef %28, ptr noundef nonnull %.0.i, ptr noundef nonnull %.0.i27) #8
  br label %37

37:                                               ; preds = %20, %_print_flag.exit28
  %indvars.iv.next = add nuw nsw i64 %indvars.iv, 1
  %38 = load i32, ptr %14, align 4
  %39 = zext i32 %38 to i64
  %40 = icmp samesign ult i64 %indvars.iv.next, %39
  br i1 %40, label %20, label %.preheader, !llvm.loop !35

41:                                               ; preds = %.lr.ph35, %58
  %indvars.iv39 = phi i64 [ 0, %.lr.ph35 ], [ %indvars.iv.next40, %58 ]
  %42 = tail call i32 @get_log_level() #8
  %43 = icmp sgt i32 %42, 2
  br i1 %43, label %44, label %58

44:                                               ; preds = %41
  %45 = load ptr, ptr %19, align 8
  %46 = getelementptr inbounds nuw ptr, ptr %45, i64 %indvars.iv39
  %47 = load ptr, ptr %46, align 8
  %48 = getelementptr inbounds nuw i8, ptr %47, i64 8
  %49 = load ptr, ptr %48, align 8
  %50 = getelementptr inbounds nuw i8, ptr %47, i64 18
  %51 = load i16, ptr %50, align 2
  %52 = icmp ult i16 %51, 7
  br i1 %52, label %switch.lookup45, label %_print_flag.exit30

switch.lookup45:                                  ; preds = %44
  %53 = zext nneg i16 %51 to i64
  %switch.gep46 = getelementptr inbounds nuw [7 x ptr], ptr @switch.table._print_jobs.4, i64 0, i64 %53
  %switch.load47 = load ptr, ptr %switch.gep46, align 8
  br label %_print_flag.exit30

_print_flag.exit30:                               ; preds = %44, %switch.lookup45
  %.0.i29 = phi ptr [ %switch.load47, %switch.lookup45 ], [ @.str.53, %44 ]
  %54 = getelementptr inbounds nuw i8, ptr %47, i64 16
  %55 = load i16, ptr %54, align 8
  %56 = icmp ult i16 %55, 7
  br i1 %56, label %switch.lookup48, label %_print_flag.exit32

switch.lookup48:                                  ; preds = %_print_flag.exit30
  %57 = zext nneg i16 %55 to i64
  %switch.gep49 = getelementptr inbounds nuw [7 x ptr], ptr @switch.table._print_jobs.4, i64 0, i64 %57
  %switch.load50 = load ptr, ptr %switch.gep49, align 8
  br label %_print_flag.exit32

_print_flag.exit32:                               ; preds = %_print_flag.exit30, %switch.lookup48
  %.0.i31 = phi ptr [ %switch.load50, %switch.lookup48 ], [ @.str.53, %_print_flag.exit30 ]
  tail call void (i32, ptr, ...) @log_var(i32 noundef 3, ptr noundef nonnull @.str.44, ptr noundef %49, ptr noundef nonnull %.0.i29, ptr noundef nonnull %.0.i31) #8
  br label %58

58:                                               ; preds = %41, %_print_flag.exit32
  %indvars.iv.next40 = add nuw nsw i64 %indvars.iv39, 1
  %59 = load i32, ptr %17, align 4
  %60 = zext i32 %59 to i64
  %61 = icmp samesign ult i64 %indvars.iv.next40, %60
  br i1 %61, label %41, label %._crit_edge, !llvm.loop !36

._crit_edge:                                      ; preds = %58, %.preheader
  %62 = getelementptr inbounds nuw i8, ptr %0, i64 48
  %63 = load ptr, ptr %62, align 8
  %.not26 = icmp eq ptr %63, null
  br i1 %.not26, label %72, label %64

64:                                               ; preds = %._crit_edge
  %65 = tail call i64 @bit_size(ptr noundef nonnull %63) #8
  %66 = load ptr, ptr %62, align 8
  %67 = tail call i32 @bit_set_count(ptr noundef %66) #8
  %68 = tail call i32 @get_log_level() #8
  %69 = icmp sgt i32 %68, 2
  br i1 %69, label %70, label %72

70:                                               ; preds = %64
  %71 = trunc i64 %65 to i32
  tail call void (i32, ptr, ...) @log_var(i32 noundef 3, ptr noundef nonnull @.str.45, i32 noundef %67, i32 noundef %71) #8
  br label %72

72:                                               ; preds = %64, %70, %._crit_edge, %1
  ret void
}